target datalayout = "e-m:e-p270:32:32-p271:32:32-p272:64:64-i64:64-i128:128-f80:128-n8:16:32:64-S128"
target triple = "x86_64-pc-linux-gnu"

%struct.AVDictionary = type { i32, ptr }
%struct.AVDictionaryEntry = type { ptr, ptr }
%struct.AVBPrint = type { ptr, i32, i32, i32, [1 x i8], [1000 x i8] }

@.str.1 = private unnamed_addr constant [1 x i8] zeroinitializer, align 1

; Function Attrs: nounwind uwtable
define ptr @av_dict_iterate(ptr noundef %0, ptr noundef %1) #0 {
  %3 = alloca ptr, align 8
  %4 = alloca ptr, align 8
  %5 = alloca ptr, align 8
  %6 = alloca i32, align 4
  %7 = alloca i32, align 4
  store ptr %0, ptr %4, align 8, !tbaa !4
  store ptr %1, ptr %5, align 8, !tbaa !13
  call void @llvm.lifetime.start.p0(i64 4, ptr %6) #7
  store i32 0, ptr %6, align 4, !tbaa !14
  %8 = load ptr, ptr %4, align 8, !tbaa !4
  %9 = icmp ne ptr %8, null
  br i1 %9, label %11, label %10

10:                                               ; preds = %2
  store ptr null, ptr %3, align 8
  store i32 1, ptr %7, align 4
  br label %39

11:                                               ; preds = %2
  %12 = load ptr, ptr %5, align 8, !tbaa !13
  %13 = icmp ne ptr %12, null
  br i1 %13, label %14, label %25

14:                                               ; preds = %11
  %15 = load ptr, ptr %5, align 8, !tbaa !13
  %16 = load ptr, ptr %4, align 8, !tbaa !4
  %17 = getelementptr inbounds nuw %struct.AVDictionary, ptr %16, i32 0, i32 1
  %18 = load ptr, ptr %17, align 8, !tbaa !15
  %19 = ptrtoint ptr %15 to i64
  %20 = ptrtoint ptr %18 to i64
  %21 = sub i64 %19, %20
  %22 = sdiv exact i64 %21, 16
  %23 = add nsw i64 %22, 1
  %24 = trunc i64 %23 to i32
  store i32 %24, ptr %6, align 4, !tbaa !14
  br label %25

25:                                               ; preds = %14, %11
  %26 = load i32, ptr %6, align 4, !tbaa !14
  %27 = load ptr, ptr %4, align 8, !tbaa !4
  %28 = getelementptr inbounds nuw %struct.AVDictionary, ptr %27, i32 0, i32 0
  %29 = load i32, ptr %28, align 8, !tbaa !9
  %30 = icmp sge i32 %26, %29
  br i1 %30, label %31, label %32

31:                                               ; preds = %25
  store ptr null, ptr %3, align 8
  store i32 1, ptr %7, align 4
  br label %39

32:                                               ; preds = %25
  %33 = load ptr, ptr %4, align 8, !tbaa !4
  %34 = getelementptr inbounds nuw %struct.AVDictionary, ptr %33, i32 0, i32 1
  %35 = load ptr, ptr %34, align 8, !tbaa !15
  %36 = load i32, ptr %6, align 4, !tbaa !14
  %37 = sext i32 %36 to i64
  %38 = getelementptr inbounds %struct.AVDictionaryEntry, ptr %35, i64 %37
  store ptr %38, ptr %3, align 8
  store i32 1, ptr %7, align 4
  br label %39

39:                                               ; preds = %32, %31, %10
  call void @llvm.lifetime.end.p0(i64 4, ptr %6) #7
  %40 = load ptr, ptr %3, align 8
  ret ptr %40
}

; Function Attrs: nounwind uwtable
define i32 @av_dict_count(ptr noundef %0) #0 {
  %2 = alloca ptr, align 8
  store ptr %0, ptr %2, align 8, !tbaa !4
  %3 = load ptr, ptr %2, align 8, !tbaa !4
  %4 = icmp ne ptr %3, null
  br i1 %4, label %5, label %9

5:                                                ; preds = %1
  %6 = load ptr, ptr %2, align 8, !tbaa !4
  %7 = getelementptr inbounds nuw %struct.AVDictionary, ptr %6, i32 0, i32 0
  %8 = load i32, ptr %7, align 8, !tbaa !9
  br label %10

9:                                                ; preds = %1
  br label %10

10:                                               ; preds = %9, %5
  %11 = phi i32 [ %8, %5 ], [ 0, %9 ]
  ret i32 %11
}

; Function Attrs: nounwind uwtable
define i32 @av_dict_get_string(ptr noundef %0, ptr noundef %1, i8 noundef signext %2, i8 noundef signext %3) #0 {
  %5 = alloca i32, align 4
  %6 = alloca ptr, align 8
  %7 = alloca ptr, align 8
  %8 = alloca i8, align 1
  %9 = alloca i8, align 1
  %10 = alloca ptr, align 8
  %11 = alloca %struct.AVBPrint, align 8
  %12 = alloca i32, align 4
  %13 = alloca [3 x i8], align 1
  %14 = alloca i32, align 4
  store ptr %0, ptr %6, align 8, !tbaa !4
  store ptr %1, ptr %7, align 8, !tbaa !34
  store i8 %2, ptr %8, align 1, !tbaa !20
  store i8 %3, ptr %9, align 1, !tbaa !20
  call void @llvm.lifetime.start.p0(i64 8, ptr %10) #7
  store ptr null, ptr %10, align 8, !tbaa !13
  call void @llvm.lifetime.start.p0(i64 1024, ptr %11) #7
  call void @llvm.lifetime.start.p0(i64 4, ptr %12) #7
  store i32 0, ptr %12, align 4, !tbaa !14
  call void @llvm.lifetime.start.p0(i64 3, ptr %13) #7
  %15 = load i8, ptr %9, align 1, !tbaa !20
  store i8 %15, ptr %13, align 1, !tbaa !20
  %16 = getelementptr inbounds i8, ptr %13, i64 1
  %17 = load i8, ptr %8, align 1, !tbaa !20
  store i8 %17, ptr %16, align 1, !tbaa !20
  %18 = getelementptr inbounds i8, ptr %13, i64 2
  store i8 0, ptr %18, align 1, !tbaa !20
  %19 = load ptr, ptr %7, align 8, !tbaa !34
  %20 = icmp ne ptr %19, null
  br i1 %20, label %21, label %43

21:                                               ; preds = %4
  %22 = load i8, ptr %9, align 1, !tbaa !20
  %23 = sext i8 %22 to i32
  %24 = icmp eq i32 %23, 0
  br i1 %24, label %43, label %25

25:                                               ; preds = %21
  %26 = load i8, ptr %8, align 1, !tbaa !20
  %27 = sext i8 %26 to i32
  %28 = icmp eq i32 %27, 0
  br i1 %28, label %43, label %29

29:                                               ; preds = %25
  %30 = load i8, ptr %9, align 1, !tbaa !20
  %31 = sext i8 %30 to i32
  %32 = load i8, ptr %8, align 1, !tbaa !20
  %33 = sext i8 %32 to i32
  %34 = icmp eq i32 %31, %33
  br i1 %34, label %43, label %35

35:                                               ; preds = %29
  %36 = load i8, ptr %9, align 1, !tbaa !20
  %37 = sext i8 %36 to i32
  %38 = icmp eq i32 %37, 92
  br i1 %38, label %43, label %39

39:                                               ; preds = %35
  %40 = load i8, ptr %8, align 1, !tbaa !20
  %41 = sext i8 %40 to i32
  %42 = icmp eq i32 %41, 92
  br i1 %42, label %43, label %44

43:                                               ; preds = %39, %35, %29, %25, %21, %4
  store i32 -22, ptr %5, align 4
  store i32 1, ptr %14, align 4
  br label %78

44:                                               ; preds = %39
  %45 = load ptr, ptr %6, align 8, !tbaa !4
  %46 = call i32 @av_dict_count(ptr noundef %45)
  %47 = icmp ne i32 %46, 0
  br i1 %47, label %55, label %48

48:                                               ; preds = %44
  %49 = call noalias ptr @av_strdup(ptr noundef @.str.1)
  %50 = load ptr, ptr %7, align 8, !tbaa !34
  store ptr %49, ptr %50, align 8, !tbaa !16
  %51 = load ptr, ptr %7, align 8, !tbaa !34
  %52 = load ptr, ptr %51, align 8, !tbaa !16
  %53 = icmp ne ptr %52, null
  %54 = select i1 %53, i32 0, i32 -12
  store i32 %54, ptr %5, align 4
  store i32 1, ptr %14, align 4
  br label %78

55:                                               ; preds = %44
  call void @av_bprint_init(ptr noundef %11, i32 noundef 64, i32 noundef -1)
  br label %56

56:                                               ; preds = %66, %55
  %57 = load ptr, ptr %6, align 8, !tbaa !4
  %58 = load ptr, ptr %10, align 8, !tbaa !13
  %59 = call ptr @av_dict_iterate(ptr noundef %57, ptr noundef %58)
  store ptr %59, ptr %10, align 8, !tbaa !13
  %60 = icmp ne ptr %59, null
  br i1 %60, label %61, label %75

61:                                               ; preds = %56
  %62 = load i32, ptr %12, align 4, !tbaa !14
  %63 = add nsw i32 %62, 1
  store i32 %63, ptr %12, align 4, !tbaa !14
  %64 = icmp ne i32 %62, 0
  br i1 %64, label %65, label %66

65:                                               ; preds = %61
  call void @av_bprint_append_data(ptr noundef %11, ptr noundef %9, i32 noundef 1)
  br label %66

66:                                               ; preds = %65, %61
  %67 = load ptr, ptr %10, align 8, !tbaa !13
  %68 = getelementptr inbounds nuw %struct.AVDictionaryEntry, ptr %67, i32 0, i32 0
  %69 = load ptr, ptr %68, align 8, !tbaa !18
  %70 = getelementptr inbounds [3 x i8], ptr %13, i64 0, i64 0
  call void @av_bprint_escape(ptr noundef %11, ptr noundef %69, ptr noundef %70, i32 noundef 1, i32 noundef 0)
  call void @av_bprint_append_data(ptr noundef %11, ptr noundef %8, i32 noundef 1)
  %71 = load ptr, ptr %10, align 8, !tbaa !13
  %72 = getelementptr inbounds nuw %struct.AVDictionaryEntry, ptr %71, i32 0, i32 1
  %73 = load ptr, ptr %72, align 8, !tbaa !28
  %74 = getelementptr inbounds [3 x i8], ptr %13, i64 0, i64 0
  call void @av_bprint_escape(ptr noundef %11, ptr noundef %73, ptr noundef %74, i32 noundef 1, i32 noundef 0)
  br label %56, !llvm.loop !38

75:                                               ; preds = %56
  %76 = load ptr, ptr %7, align 8, !tbaa !34
  %77 = call i32 @av_bprint_finalize(ptr noundef %11, ptr noundef %76)
  store i32 %77, ptr %5, align 4
  store i32 1, ptr %14, align 4
  br label %78

78:                                               ; preds = %75, %48, %43
  call void @llvm.lifetime.end.p0(i64 3, ptr %13) #7
  call void @llvm.lifetime.end.p0(i64 4, ptr %12) #7
  call void @llvm.lifetime.end.p0(i64 1024, ptr %11) #7
  call void @llvm.lifetime.end.p0(i64 8, ptr %10) #7
  %79 = load i32, ptr %5, align 4
  ret i32 %79
}