; Function Attrs: nounwind uwtable
define i32 @av_dict_get_string(ptr noundef readonly captures(address_is_null) %0, ptr noundef %1, i8 noundef signext %2, i8 noundef signext %3) local_unnamed_addr #3 {
  %5 = alloca i8, align 1
  %6 = alloca i8, align 1
  %7 = alloca %struct.AVBPrint, align 8
  %8 = alloca [3 x i8], align 1
  store i8 %2, ptr %5, align 1, !tbaa !15
  store i8 %3, ptr %6, align 1, !tbaa !15
  call void @llvm.lifetime.start.p0(i64 1024, ptr nonnull %7) #8
  call void @llvm.lifetime.start.p0(i64 3, ptr nonnull %8) #8
  store i8 %3, ptr %8, align 1, !tbaa !15
  %9 = getelementptr inbounds nuw i8, ptr %8, i64 1
  store i8 %2, ptr %9, align 1, !tbaa !15
  %10 = getelementptr inbounds nuw i8, ptr %8, i64 2
  store i8 0, ptr %10, align 1, !tbaa !15
  %11 = icmp eq ptr %1, null
  %12 = icmp eq i8 %3, 0
  %or.cond = or i1 %11, %12
  %13 = icmp eq i8 %2, 0
  %or.cond5 = or i1 %13, %or.cond
  br i1 %or.cond5, label %46, label %14

14:                                               ; preds = %4
  %15 = icmp eq i8 %3, %2
  %16 = icmp eq i8 %3, 92
  %or.cond8 = or i1 %15, %16
  %17 = icmp eq i8 %2, 92
  %or.cond11 = or i1 %17, %or.cond8
  br i1 %or.cond11, label %46, label %18

18:                                               ; preds = %14
  %.not.i = icmp eq ptr %0, null
  br i1 %.not.i, label %av_dict_count.exit.thread, label %av_dict_count.exit

av_dict_count.exit:                               ; preds = %18
  %19 = load i32, ptr %0, align 8, !tbaa !4
  %.not = icmp eq i32 %19, 0
  br i1 %.not, label %av_dict_count.exit.thread, label %22

av_dict_count.exit.thread:                        ; preds = %18, %av_dict_count.exit
  %20 = tail call noalias ptr @av_strdup(ptr noundef nonnull @.str.1) #8
  store ptr %20, ptr %1, align 8, !tbaa !21
  %.not27 = icmp eq ptr %20, null
  %21 = select i1 %.not27, i32 -12, i32 0
  br label %46

22:                                               ; preds = %av_dict_count.exit
  call void @av_bprint_init(ptr noundef nonnull %7, i32 noundef 64, i32 noundef -1) #8
  %23 = getelementptr inbounds nuw i8, ptr %0, i64 8
  br label %24

24:                                               ; preds = %22, %41
  %.021 = phi ptr [ null, %22 ], [ %37, %41 ]
  %.0 = phi i32 [ 0, %22 ], [ %39, %41 ]
  %.not11.i = icmp eq ptr %.021, null
  br i1 %.not11.i, label %33, label %25

25:                                               ; preds = %24
  %26 = load ptr, ptr %23, align 8, !tbaa !11
  %27 = ptrtoint ptr %.021 to i64
  %28 = ptrtoint ptr %26 to i64
  %29 = sub i64 %27, %28
  %30 = lshr exact i64 %29, 4
  %31 = trunc i64 %30 to i32
  %32 = add i32 %31, 1
  br label %33

33:                                               ; preds = %25, %24
  %.0.i = phi i32 [ %32, %25 ], [ 0, %24 ]
  %34 = load i32, ptr %0, align 8, !tbaa !4
  %.not12.i = icmp slt i32 %.0.i, %34
  br i1 %.not12.i, label %av_dict_iterate.exit, label %av_dict_iterate.exit.thread

av_dict_iterate.exit:                             ; preds = %33
  %35 = load ptr, ptr %23, align 8, !tbaa !11
  %36 = sext i32 %.0.i to i64
  %37 = getelementptr inbounds %struct.AVDictionaryEntry, ptr %35, i64 %36
  %.not28 = icmp eq ptr %35, null
  br i1 %.not28, label %av_dict_iterate.exit.thread, label %38

38:                                               ; preds = %av_dict_iterate.exit
  %39 = add nuw nsw i32 %.0, 1
  %.not29 = icmp eq i32 %.0, 0
  br i1 %.not29, label %41, label %40

40:                                               ; preds = %38
  call void @av_bprint_append_data(ptr noundef nonnull %7, ptr noundef nonnull %6, i32 noundef 1) #8
  br label %41

41:                                               ; preds = %40, %38
  %42 = load ptr, ptr %37, align 8, !tbaa !12
  call void @av_bprint_escape(ptr noundef nonnull %7, ptr noundef %42, ptr noundef nonnull %8, i32 noundef 1, i32 noundef 0) #8
  call void @av_bprint_append_data(ptr noundef nonnull %7, ptr noundef nonnull %5, i32 noundef 1) #8
  %43 = getelementptr inbounds nuw i8, ptr %37, i64 8
  %44 = load ptr, ptr %43, align 8, !tbaa !22
  call void @av_bprint_escape(ptr noundef nonnull %7, ptr noundef %44, ptr noundef nonnull %8, i32 noundef 1, i32 noundef 0) #8
  br label %24, !llvm.loop !28

av_dict_iterate.exit.thread:                      ; preds = %33, %av_dict_iterate.exit
  %45 = call i32 @av_bprint_finalize(ptr noundef nonnull %7, ptr noundef %1) #8
  br label %46

46:                                               ; preds = %4, %14, %av_dict_iterate.exit.thread, %av_dict_count.exit.thread
  %.022 = phi i32 [ %45, %av_dict_iterate.exit.thread ], [ %21, %av_dict_count.exit.thread ], [ -22, %14 ], [ -22, %4 ]
  call void @llvm.lifetime.end.p0(i64 3, ptr nonnull %8) #8
  call void @llvm.lifetime.end.p0(i64 1024, ptr nonnull %7) #8
  ret i32 %.022
}